; Function Attrs: mustprogress nofree norecurse nosync nounwind willreturn memory(none) uwtable
define i64 @dt_bilateral_singlebuffer_size2(i32 noundef %0, i32 noundef %1, float noundef %2, float noundef %3) local_unnamed_addr #3 {
  %5 = fcmp reassoc nsz arcp contract afn olt float %2, 5.000000e-01
  %.0.i.i = select nsz i1 %5, float 5.000000e-01, float %2
  %6 = sitofp i32 %0 to float
  %7 = fdiv reassoc nsz arcp contract afn float %6, %.0.i.i
  %8 = tail call reassoc nsz arcp contract afn float @llvm.round.f32(float %7)
  %9 = fptosi float %8 to i32
  %spec.select50.i.i = tail call i32 @llvm.smin.i32(i32 %9, i32 3000)
  %10 = tail call i32 @llvm.smax.i32(i32 %spec.select50.i.i, i32 4)
  %11 = uitofp nneg i32 %10 to float
  %12 = sitofp i32 %1 to float
  %13 = fdiv reassoc nsz arcp contract afn float %12, %.0.i.i
  %14 = tail call reassoc nsz arcp contract afn float @llvm.round.f32(float %13)
  %15 = fptosi float %14 to i32
  %spec.select4851.i.i = tail call i32 @llvm.smin.i32(i32 %15, i32 3000)
  %16 = tail call i32 @llvm.smax.i32(i32 %spec.select4851.i.i, i32 4)
  %17 = uitofp nneg i32 %16 to float
  %18 = fdiv reassoc nsz arcp contract afn float 1.000000e+02, %3
  %19 = tail call reassoc nsz arcp contract afn float @llvm.round.f32(float %18)
  %20 = fptosi float %19 to i32
  %spec.select4952.i.i = tail call i32 @llvm.smin.i32(i32 %20, i32 50)
  %21 = tail call i32 @llvm.smax.i32(i32 %spec.select4952.i.i, i32 4)
  %22 = fdiv reassoc nsz arcp contract afn float %12, %17
  %23 = fdiv reassoc nsz arcp contract afn float %6, %11
  %24 = fcmp reassoc nsz arcp contract afn ogt float %22, %23
  %..i.i = select reassoc nsz arcp contract afn i1 %24, float %22, float %23
  %25 = fdiv reassoc nsz arcp contract afn float 1.000000e+00, %..i.i
  %26 = fmul reassoc nsz arcp contract afn float %25, %6
  %27 = tail call reassoc nsz arcp contract afn float @llvm.ceil.f32(float %26)
  %28 = fptosi float %27 to i32
  %29 = add nsw i32 %28, 1
  %30 = sext i32 %29 to i64
  %31 = fmul reassoc nsz arcp contract afn float %25, %12
  %32 = tail call reassoc nsz arcp contract afn float @llvm.ceil.f32(float %31)
  %33 = fptosi float %32 to i32
  %34 = sext i32 %33 to i64
  %35 = add nsw i64 %34, 4
  %36 = shl nuw nsw i32 %21, 2
  %37 = add nuw nsw i32 %36, 4
  %38 = zext nneg i32 %37 to i64
  %39 = mul nsw i64 %30, %38
  %40 = mul i64 %39, %35
  ret i64 %40
}